; Function Attrs: mustprogress uwtable
define internal fastcc nonnull ptr @"_ZN6google8protobuf8internal12ExtensionSet7ForEachISt17_Rb_tree_iteratorISt4pairIKiNS2_9ExtensionEEEZNKS2_8ByteSizeEvE3$_0EET0_T_SC_SB_"(ptr %0, ptr readnone %1, ptr nonnull returned %2) unnamed_addr #8 align 2 {
  %.not7 = icmp eq ptr %0, %1
  br i1 %.not7, label %._crit_edge, label %.lr.ph

._crit_edge:                                      ; preds = %.lr.ph, %3
  ret ptr %2

.lr.ph:                                           ; preds = %3, %.lr.ph
  %.sroa.0.08 = phi ptr [ %10, %.lr.ph ], [ %0, %3 ]
  %4 = getelementptr inbounds nuw i8, ptr %.sroa.0.08, i64 32
  %5 = load i32, ptr %4, align 8, !tbaa !156
  %6 = getelementptr inbounds nuw i8, ptr %.sroa.0.08, i64 40
  %7 = tail call noundef i64 @_ZNK6google8protobuf8internal12ExtensionSet9Extension8ByteSizeEi(ptr noundef nonnull align 8 dereferenceable(24) %6, i32 noundef %5)
  %8 = load i64, ptr %2, align 8, !tbaa !119
  %9 = add i64 %8, %7
  store i64 %9, ptr %2, align 8, !tbaa !119
  %10 = tail call noundef ptr @_ZSt18_Rb_tree_incrementPSt18_Rb_tree_node_base(ptr noundef %.sroa.0.08) #34
  %.not = icmp eq ptr %10, %1
  br i1 %.not, label %._crit_edge, label %.lr.ph, !llvm.loop !329
}